; Function Attrs: nofree norecurse nosync nounwind memory(argmem: readwrite) uwtable
define internal void @pred8x8l_horizontal_add_14_c(ptr noundef captures(none) %0, ptr noundef captures(none) %1, i64 noundef %2) #3 {
  %4 = ashr i64 %2, 1
  br label %5

5:                                                ; preds = %3, %5
  %.037 = phi ptr [ %1, %3 ], [ %47, %5 ]
  %.03336 = phi ptr [ %0, %3 ], [ %46, %5 ]
  %.03435 = phi i32 [ 0, %3 ], [ %48, %5 ]
  %6 = getelementptr inbounds i8, ptr %.03336, i64 -2
  %7 = load i16, ptr %6, align 2, !tbaa !9
  %8 = load i32, ptr %.037, align 4, !tbaa !56
  %9 = trunc i32 %8 to i16
  %10 = add i16 %7, %9
  store i16 %10, ptr %.03336, align 2, !tbaa !9
  %11 = getelementptr inbounds nuw i8, ptr %.037, i64 4
  %12 = load i32, ptr %11, align 4, !tbaa !56
  %13 = trunc i32 %12 to i16
  %14 = add i16 %10, %13
  %15 = getelementptr inbounds nuw i8, ptr %.03336, i64 2
  store i16 %14, ptr %15, align 2, !tbaa !9
  %16 = getelementptr inbounds nuw i8, ptr %.037, i64 8
  %17 = load i32, ptr %16, align 4, !tbaa !56
  %18 = trunc i32 %17 to i16
  %19 = add i16 %14, %18
  %20 = getelementptr inbounds nuw i8, ptr %.03336, i64 4
  store i16 %19, ptr %20, align 2, !tbaa !9
  %21 = getelementptr inbounds nuw i8, ptr %.037, i64 12
  %22 = load i32, ptr %21, align 4, !tbaa !56
  %23 = trunc i32 %22 to i16
  %24 = add i16 %19, %23
  %25 = getelementptr inbounds nuw i8, ptr %.03336, i64 6
  store i16 %24, ptr %25, align 2, !tbaa !9
  %26 = getelementptr inbounds nuw i8, ptr %.037, i64 16
  %27 = load i32, ptr %26, align 4, !tbaa !56
  %28 = trunc i32 %27 to i16
  %29 = add i16 %24, %28
  %30 = getelementptr inbounds nuw i8, ptr %.03336, i64 8
  store i16 %29, ptr %30, align 2, !tbaa !9
  %31 = getelementptr inbounds nuw i8, ptr %.037, i64 20
  %32 = load i32, ptr %31, align 4, !tbaa !56
  %33 = trunc i32 %32 to i16
  %34 = add i16 %29, %33
  %35 = getelementptr inbounds nuw i8, ptr %.03336, i64 10
  store i16 %34, ptr %35, align 2, !tbaa !9
  %36 = getelementptr inbounds nuw i8, ptr %.037, i64 24
  %37 = load i32, ptr %36, align 4, !tbaa !56
  %38 = trunc i32 %37 to i16
  %39 = add i16 %34, %38
  %40 = getelementptr inbounds nuw i8, ptr %.03336, i64 12
  store i16 %39, ptr %40, align 2, !tbaa !9
  %41 = getelementptr inbounds nuw i8, ptr %.037, i64 28
  %42 = load i32, ptr %41, align 4, !tbaa !56
  %43 = trunc i32 %42 to i16
  %44 = add i16 %39, %43
  %45 = getelementptr inbounds nuw i8, ptr %.03336, i64 14
  store i16 %44, ptr %45, align 2, !tbaa !9
  %46 = getelementptr inbounds i16, ptr %.03336, i64 %4
  %47 = getelementptr inbounds nuw i8, ptr %.037, i64 32
  %48 = add nuw nsw i32 %.03435, 1
  %exitcond.not = icmp eq i32 %48, 8
  br i1 %exitcond.not, label %49, label %5, !llvm.loop !235

49:                                               ; preds = %5
  tail call void @llvm.memset.p0.i64(ptr noundef nonnull align 2 dereferenceable(256) %1, i8 0, i64 256, i1 false)
  ret void
}